ccopy_reg
_reconstructor
p0
(cdigits.model.images.classification.job
ImageClassificationModelJob
p1
c__builtin__
object
p2
Ntp3
Rp4
(dp5
S'username'
p6
Vcsosa
p7
sS'_notes'
p8
NsS'tasks'
p9
(lp10
g0
(cdigits.model.tasks.caffe_train
CaffeTrainTask
p11
g2
Ntp12
Rp13
(dp14
S'traceback'
p15
NsS'shuffle'
p16
I01
sS'snapshot_interval'
p17
F1.0
sS'train_outputs'
p18
ccollections
OrderedDict
p19
((lp20
(lp21
S'epoch'
p22
ag0
(cdigits.model.tasks.train
NetworkOutput
p23
c__builtin__
tuple
p24
(S'Epoch'
p25
(lp26
I0
aF0.11666666666666667
aF0.23333333333333334
aF0.35
aF0.4666666666666667
aF0.5833333333333334
aF0.7
aF0.8166666666666667
aF0.9333333333333333
aF1.05
aF1.1666666666666667
aF1.2833333333333334
aF1.4
aF1.5166666666666666
aF1.6333333333333333
aF1.75
aF1.8666666666666667
aF1.9833333333333334
aF2.1
aF2.216666666666667
aF2.3333333333333335
aF2.45
aF2.566666666666667
aF2.683333333333333
aF2.8
aF2.9166666666666665
aF3.033333333333333
aF3.15
aF3.2666666666666666
aF3.3833333333333333
aF3.5
aF3.6166666666666667
aF3.7333333333333334
aF3.85
aF3.966666666666667
aF4.083333333333333
aF4.2
aF4.316666666666666
aF4.433333333333334
aF4.55
aF4.666666666666667
aF4.783333333333333
aF4.9
aF5.016666666666667
aF5.133333333333334
aF5.25
aF5.366666666666666
aF5.483333333333333
aF5.6
aF5.716666666666667
aF5.833333333333333
aF5.95
aF6.066666666666666
aF6.183333333333334
aF6.3
aF6.416666666666667
aF6.533333333333333
aF6.65
aF6.766666666666667
aF6.883333333333334
aF7.0
aF7.116666666666666
aF7.233333333333333
aF7.35
aF7.466666666666667
aF7.583333333333333
aF7.7
aF7.816666666666666
aF7.933333333333334
aF8.05
aF8.166666666666666
aF8.283333333333333
aF8.4
aF8.516666666666667
aF8.633333333333333
aF8.75
aF8.866666666666667
aF8.983333333333333
aF9.1
aF9.216666666666667
aF9.333333333333334
aF9.45
aF9.566666666666666
aF9.683333333333334
aF9.8
aF9.916666666666666
aF10.033333333333333
aF10.15
aF10.266666666666667
aF10.383333333333333
aF10.5
aF10.616666666666667
aF10.733333333333333
aF10.85
aF10.966666666666667
aF11.083333333333334
aF11.2
aF11.316666666666666
aF11.433333333333334
aF11.55
aF11.666666666666666
aF11.783333333333333
aF11.9
aF12.016666666666667
aF12.133333333333333
aF12.25
aF12.366666666666667
aF12.483333333333333
aF12.6
aF12.716666666666667
aF12.833333333333334
aF12.95
aF13.066666666666666
aF13.183333333333334
aF13.3
aF13.416666666666666
aF13.533333333333333
aF13.65
aF13.766666666666667
aF13.883333333333333
aF14.0
aF14.116666666666667
aF14.233333333333333
aF14.35
aF14.466666666666667
aF14.583333333333334
aF14.7
aF14.816666666666666
aF14.933333333333334
atp27
tp28
Rp29
aa(lp30
S'loss'
p31
ag0
(g23
g24
(S'SoftmaxWithLoss'
p32
(lp33
F1.08767
aF0.912257
aF0.610614
aF1.30594
aF0.851132
aF0.607793
aF0.525018
aF0.450951
aF0.486919
aF0.403323
aF0.151357
aF0.603831
aF0.541965
aF0.493108
aF0.509362
aF0.380732
aF0.39205
aF0.576407
aF0.410532
aF0.411379
aF0.473037
aF0.48564
aF0.442348
aF0.398179
aF0.340808
aF0.0816047
aF3.35763
aF0.541987
aF0.471651
aF0.443982
aF0.240959
aF0.166912
aF0.0811338
aF0.770316
aF0.583431
aF0.160232
aF0.0690444
aF0.0103613
aF0.190283
aF0.0948882
aF0.0376272
aF0.0165741
aF0.0545553
aF0.0713267
aF0.0468325
aF0.00865268
aF0.0221807
aF0.0318866
aF0.0279747
aF0.0227874
aF0.0629737
aF0.0885706
aF0.0376843
aF0.0145733
aF0.00574047
aF0.0100006
aF0.0143054
aF0.0302191
aF0.0099896
aF0.0318197
aF0.0390558
aF0.0126396
aF0.00839223
aF0.028033
aF0.0133167
aF0.0642746
aF0.0207996
aF0.0193678
aF0.00246957
aF0.00738517
aF0.00354785
aF0.00637628
aF0.0535285
aF0.00836437
aF0.00572355
aF0.00729799
aF0.00547031
aF0.0122689
aF0.00297464
aF0.00294064
aF0.0107608
aF0.00634191
aF0.0065181
aF0.00189349
aF0.0612968
aF0.00165208
aF0.00196317
aF0.00473466
aF0.00416349
aF0.00465081
aF0.0489017
aF0.00975077
aF0.0126175
aF0.00426316
aF0.00257246
aF0.00800201
aF0.00312234
aF0.0449337
aF0.0136893
aF0.0026093
aF0.00331588
aF0.0396212
aF0.045683
aF0.00597161
aF0.00190827
aF0.00352474
aF0.00069136
aF0.00346993
aF0.0043794
aF0.00321894
aF0.00151227
aF0.00535563
aF0.00447173
aF0.00152279
aF0.083509
aF0.00971243
aF0.00372062
aF0.00380225
aF0.00387291
aF0.0513985
aF0.00332638
aF0.00330126
aF0.00295709
aF0.00358086
aF0.0081158
aF0.00997093
aF0.0353968
aF0.0391605
aF0.00218442
atp34
tp35
Rp36
aa(lp37
S'learning_rate'
p38
ag0
(g23
g24
(S'LearningRate'
p39
(lp40
F0.01
aF0.01
aF0.01
aF0.01
aF0.01
aF0.01
aF0.01
aF0.01
aF0.01
aF0.01
aF0.01
aF0.01
aF0.01
aF0.01
aF0.01
aF0.01
aF0.01
aF0.01
aF0.01
aF0.01
aF0.01
aF0.01
aF0.01
aF0.01
aF0.01
aF0.01
aF0.01
aF0.01
aF0.01
aF0.01
aF0.01
aF0.01
aF0.01
aF0.01
aF0.01
aF0.01
aF0.01
aF0.01
aF0.01
aF0.01
aF0.01
aF0.01
aF0.01
aF0.001
aF0.001
aF0.001
aF0.001
aF0.001
aF0.001
aF0.001
aF0.001
aF0.001
aF0.001
aF0.001
aF0.001
aF0.001
aF0.001
aF0.001
aF0.001
aF0.001
aF0.001
aF0.001
aF0.001
aF0.001
aF0.001
aF0.001
aF0.001
aF0.001
aF0.001
aF0.001
aF0.001
aF0.001
aF0.001
aF0.001
aF0.001
aF0.001
aF0.001
aF0.001
aF0.001
aF0.001
aF0.001
aF0.001
aF0.001
aF0.001
aF0.001
aF0.0001
aF0.0001
aF0.0001
aF0.0001
aF0.0001
aF0.0001
aF0.0001
aF0.0001
aF0.0001
aF0.0001
aF0.0001
aF0.0001
aF0.0001
aF0.0001
aF0.0001
aF0.0001
aF0.0001
aF0.0001
aF0.0001
aF0.0001
aF0.0001
aF0.0001
aF0.0001
aF0.0001
aF0.0001
aF0.0001
aF0.0001
aF0.0001
aF0.0001
aF0.0001
aF0.0001
aF0.0001
aF0.0001
aF0.0001
aF0.0001
aF0.0001
aF0.0001
aF0.0001
aF0.0001
aF0.0001
aF0.0001
aF0.0001
aF0.0001
aF1e-05
atp41
tp42
Rp43
aatp44
Rp45
sS'val_outputs'
p46
g19
((lp47
(lp48
g22
ag0
(g23
g24
(g25
(lp49
I0
aF1.0
aF2.0
aF3.0
aF4.0
aF5.0
aF6.0
aF7.0
aF8.0
aF9.0
aF10.0
aF11.0
aF12.0
aF13.0
aF14.0
aF15.0
atp50
tp51
Rp52
aa(lp53
S'accuracy'
p54
ag0
(g23
g24
(S'Accuracy'
p55
(lp56
F0.247231
aF0.808149
aF0.752769
aF0.995253
aF0.921282
aF0.980617
aF0.994858
aF0.999209
aF0.999209
aF0.999209
aF0.999209
aF0.999209
aF0.999209
aF0.999209
aF0.999209
aF0.999209
atp57
tp58
Rp59
aa(lp60
S'loss'
p61
ag0
(g23
g24
(S'SoftmaxWithLoss'
p62
(lp63
F1.09952
aF0.381074
aF0.516661
aF0.0429026
aF0.298914
aF0.0449802
aF0.0120471
aF0.00984764
aF0.00765883
aF0.00639905
aF0.0051612
aF0.00501127
aF0.00500528
aF0.00509678
aF0.00505664
aF0.00484037
atp64
tp65
Rp66
aatp67
Rp68
sS'loaded_snapshot_epoch'
p69
NsS'pretrained_model'
p70
NsS'deploy_file'
p71
S'deploy.prototxt'
p72
sS'current_iteration'
p73
I900
sS'crop_size'
p74
I227
sS'rms_decay'
p75
F0.99
sS'traces_interval'
p76
I0
sS'train_epochs'
p77
I15
sS'network'
p78
ccaffe_pb2
NetParameter
p79
(tRp80
(dp81
S'serialized'
p82
S'\n\x07AlexNet\xa2\x066\n\ntrain-data\x12\x04Data"\x04data"\x05labelB\x07"\x05train\xa2\x06\x05\x10\x01\x18\xe3\x01\xda\x06\x03 \x80\x01\xa2\x06/\n\x08val-data\x12\x04Data"\x04data"\x05labelB\x05"\x03val\xa2\x06\x03\x18\xe3\x01\xda\x06\x02  \xa2\x06d\n\x05conv1\x12\x0bConvolution\x1a\x04data"\x05conv12\n\x1d\x00\x00\x80?%\x00\x00\x80?2\n\x1d\x00\x00\x00@%\x00\x00\x00\x00\xd2\x06(\x08` \x0b0\x04:\x0f\n\x08gaussian5\n\xd7#<B\x0f\n\x08constant\x15\x00\x00\x00\x00\xa2\x06\x1b\n\x05relu1\x12\x04ReLU\x1a\x05conv1"\x05conv1\xa2\x06)\n\x05norm1\x12\x03LRN\x1a\x05conv1"\x05norm1\xb2\x07\x0c\x08\x05\x15\x17\xb7\xd18\x1d\x00\x00@?\xa2\x06\'\n\x05pool1\x12\x07Pooling\x1a\x05norm1"\x05pool1\xca\x07\x06\x08\x00\x10\x03\x18\x02\xa2\x06h\n\x05conv2\x12\x0bConvolution\x1a\x05pool1"\x05conv22\n\x1d\x00\x00\x80?%\x00\x00\x80?2\n\x1d\x00\x00\x00@%\x00\x00\x00\x00\xd2\x06+\x08\x80\x02\x18\x02 \x05(\x02:\x0f\n\x08gaussian5\n\xd7#<B\x0f\n\x08constant\x15\xcd\xcc\xcc=\xa2\x06\x1b\n\x05relu2\x12\x04ReLU\x1a\x05conv2"\x05conv2\xa2\x06)\n\x05norm2\x12\x03LRN\x1a\x05conv2"\x05norm2\xb2\x07\x0c\x08\x05\x15\x17\xb7\xd18\x1d\x00\x00@?\xa2\x06\'\n\x05pool2\x12\x07Pooling\x1a\x05norm2"\x05pool2\xca\x07\x06\x08\x00\x10\x03\x18\x02\xa2\x06f\n\x05conv3\x12\x0bConvolution\x1a\x05pool2"\x05conv32\n\x1d\x00\x00\x80?%\x00\x00\x80?2\n\x1d\x00\x00\x00@%\x00\x00\x00\x00\xd2\x06)\x08\x80\x03\x18\x01 \x03:\x0f\n\x08gaussian5\n\xd7#<B\x0f\n\x08constant\x15\x00\x00\x00\x00\xa2\x06\x1b\n\x05relu3\x12\x04ReLU\x1a\x05conv3"\x05conv3\xa2\x06h\n\x05conv4\x12\x0bConvolution\x1a\x05conv3"\x05conv42\n\x1d\x00\x00\x80?%\x00\x00\x80?2\n\x1d\x00\x00\x00@%\x00\x00\x00\x00\xd2\x06+\x08\x80\x03\x18\x01 \x03(\x02:\x0f\n\x08gaussian5\n\xd7#<B\x0f\n\x08constant\x15\xcd\xcc\xcc=\xa2\x06\x1b\n\x05relu4\x12\x04ReLU\x1a\x05conv4"\x05conv4\xa2\x06h\n\x05conv5\x12\x0bConvolution\x1a\x05conv4"\x05conv52\n\x1d\x00\x00\x80?%\x00\x00\x80?2\n\x1d\x00\x00\x00@%\x00\x00\x00\x00\xd2\x06+\x08\x80\x02\x18\x01 \x03(\x02:\x0f\n\x08gaussian5\n\xd7#<B\x0f\n\x08constant\x15\xcd\xcc\xcc=\xa2\x06\x1b\n\x05relu5\x12\x04ReLU\x1a\x05conv5"\x05conv5\xa2\x06\'\n\x05pool5\x12\x07Pooling\x1a\x05conv5"\x05pool5\xca\x07\x06\x08\x00\x10\x03\x18\x02\xa2\x06_\n\x03fc6\x12\x0cInnerProduct\x1a\x05pool5"\x03fc62\n\x1d\x00\x00\x80?%\x00\x00\x80?2\n\x1d\x00\x00\x00@%\x00\x00\x00\x00\xaa\x07%\x08\x80 \x1a\x0f\n\x08gaussian5\n\xd7\xa3;"\x0f\n\x08constant\x15\xcd\xcc\xcc=\xa2\x06\x17\n\x05relu6\x12\x04ReLU\x1a\x03fc6"\x03fc6\xa2\x06"\n\x05drop6\x12\x07Dropout\x1a\x03fc6"\x03fc6\xe2\x06\x05\r\x00\x00\x00?\xa2\x06]\n\x03fc7\x12\x0cInnerProduct\x1a\x03fc6"\x03fc72\n\x1d\x00\x00\x80?%\x00\x00\x80?2\n\x1d\x00\x00\x00@%\x00\x00\x00\x00\xaa\x07%\x08\x80 \x1a\x0f\n\x08gaussian5\n\xd7\xa3;"\x0f\n\x08constant\x15\xcd\xcc\xcc=\xa2\x06\x17\n\x05relu7\x12\x04ReLU\x1a\x03fc7"\x03fc7\xa2\x06"\n\x05drop7\x12\x07Dropout\x1a\x03fc7"\x03fc7\xe2\x06\x05\r\x00\x00\x00?\xa2\x06Z\n\x03fc8\x12\x0cInnerProduct\x1a\x03fc7"\x03fc82\n\x1d\x00\x00\x80?%\x00\x00\x80?2\n\x1d\x00\x00\x00@%\x00\x00\x00\x00\xaa\x07"\x1a\x0f\n\x08gaussian5\n\xd7#<"\x0f\n\x08constant\x15\x00\x00\x00\x00\xa2\x061\n\x08accuracy\x12\x08Accuracy\x1a\x03fc8\x1a\x05label"\x08accuracyB\x05"\x03val\xa2\x063\n\x04loss\x12\x0fSoftmaxWithLoss\x1a\x03fc8\x1a\x05label"\x04lossJ\x08"\x06deploy\xa2\x06*\n\x07softmax\x12\x07Softmax\x1a\x03fc8"\x07softmaxB\x08"\x06deploy'
p83
sbsS'use_mean'
p84
Vimage
p85
sS'model_file'
p86
S'original.prototxt'
p87
sS'job_dir'
p88
S'/opt/DIGITS/digits/jobs/20180528-191023-5ad4'
p89
sS'receiving_val_output'
p90
I00
sS'parents'
p91
NsS'timeline_traces'
p92
(lp93
sS'gpu_count'
p94
I1
sS'receiving_train_output'
p95
I00
sS'val_interval'
p96
F1.0
sS'current_epoch'
p97
F15.0
sS'random_seed'
p98
NsS'saving_snapshot'
p99
I00
sS'pickver_task_caffe_train'
p100
I5
sg38
F0.01
sS'loaded_snapshot_file'
p101
NsS'batch_size'
p102
NsS'digits_version'
p103
S'6.1.0'
p104
sS'job'
p105
g4
sS'progress'
p106
F1.0
sS'current_resources'
p107
NsS'pickver_task'
p108
I1
sS'lr_policy'
p109
(dp110
S'policy'
p111
Vstep
p112
sS'stepsize'
p113
F33.0
sS'gamma'
p114
F0.1
ssS'job_id'
p115
S'20180528-191023-5ad4'
p116
sS'last_train_update'
p117
F1527535140.862674
sS'exception'
p118
NsS'data_aug'
p119
(dp120
S'scale'
p121
F0.0
sS'hsv_use'
p122
I00
sS'flip'
p123
Vnone
p124
sS'quad_rot'
p125
Vnone
p126
sS'noise'
p127
F0.0
sS'whitening'
p128
I00
sS'hsv_h'
p129
F0.02
sS'hsv_s'
p130
F0.04
sS'rot'
p131
I0
sS'hsv_v'
p132
F0.06
sS'contrast'
p133
F0.0
ssS'selected_gpus'
p134
NsS'caffe_flavor'
p135
S'NVIDIA'
p136
sS'snapshot_prefix'
p137
S'snapshot'
p138
sS'solver'
p139
ccaffe_pb2
SolverParameter
p140
(tRp141
(dp142
g82
S'\x18O <-\n\xd7#<0\x078\x84\x07B\x04stepM\xcd\xcc\xcc=]fff?e\x17\xb7\xd18h\xa9\x02p<z\x08snapshot\x88\x01\x01\xc2\x01\x12train_val.prototxt\xf0\x01\x00'
p143
sbsS'framework_id'
p144
S'caffe'
p145
sS'status_history'
p146
(lp147
((idigits.status
Status
p148
S'I'
p150
bF1527534623.31303
tp151
a((idigits.status
Status
p152
S'R'
p153
bF1527534624.757353
tp154
a((idigits.status
Status
p155
S'D'
p156
bF1527535147.951341
tp157
asS'pickver_task_train'
p158
I2
sS'train_val_file'
p159
S'train_val.prototxt'
p160
sS'image_mean'
p161
NsS'batch_accumulation'
p162
NsS'caffe_version'
p163
S'0.15.14'
p164
sS'log_file'
p165
S'caffe_output.log'
p166
sS'solver_file'
p167
S'solver.prototxt'
p168
sS'solver_type'
p169
VSGD
p170
sbasS'pickver_job'
p171
I2
sS'dataset_id'
p172
S'20180528-185942-1129'
p173
sS'_name'
p174
VP1_Training
p175
sS'pickver_job_model_image'
p176
I1
sg118
NsS'group'
p177
V
p178
sS'persistent'
p179
I01
sS'form_data'
p180
(dp181
S'form.standard_networks.data'
p182
Valexnet
p183
sS'form.learning_rate.data'
p184
(lp185
F0.01
asS'form.aug_flip.data'
p186
g124
sS'form.select_gpus.data'
p187
(lp188
sS'form.framework.data'
p189
Vcaffe
p190
sS'form.dataset.data'
p191
V20180528-185942-1129
p192
sS'form.python_layer_from_client.data'
p193
I00
sS'form.lr_multistep_values.data'
p194
V50,85
p195
sS'form.aug_hsv_s.data'
p196
F0.04
sS'form.aug_hsv_h.data'
p197
F0.02
sS'form.lr_policy.data'
p198
g112
sS'form.previous_networks.data'
p199
VNone
p200
sS'form.lr_sigmoid_gamma.data'
p201
F0.1
sS'form.aug_quad_rot.data'
p202
g126
sS'form.rms_decay.data'
p203
F0.99
sS'form.method.data'
p204
Vstandard
p205
sS'form.lr_sigmoid_step.data'
p206
F50.0
sS'form.crop_size.data'
p207
NsS'form.select_gpu_count.data'
p208
I1
sS'form.python_layer_server_file.data'
p209
g178
sS'form.custom_network.data'
p210
g178
sS'form.aug_hsv_v.data'
p211
F0.06
sS'form.solver_type.data'
p212
g170
sS'form.aug_noise.data'
p213
F0.0
sS'form.select_gpus_list.data'
p214
g178
sS'form.traces_interval.data'
p215
I0
sS'form.shuffle.data'
p216
I01
sS'form.aug_scale.data'
p217
F0.0
sS'form.batch_accumulation.data'
p218
NsS'form.batch_size.data'
p219
(lp220
NasS'form.lr_inv_power.data'
p221
F0.5
sS'form.group_name.data'
p222
g178
sS'form.lr_step_gamma.data'
p223
F0.1
sS'form.use_mean.data'
p224
g85
sS'form.lr_inv_gamma.data'
p225
F0.1
sS'form.aug_contrast.data'
p226
F0.0
sS'form.snapshot_interval.data'
p227
F1.0
sS'form.select_gpu.data'
p228
Vnext
p229
sS'form.lr_step_size.data'
p230
F33.0
sS'form.aug_hsv_use.data'
p231
I00
sS'form.aug_whitening.data'
p232
I00
sS'form.pretrained_networks.data'
p233
VNone
p234
sS'form.custom_network_snapshot.data'
p235
g178
sS'form.random_seed.data'
p236
NsS'form.lr_multistep_gamma.data'
p237
F0.5
sS'form.model_name.data'
p238
g175
sS'form.lr_exp_gamma.data'
p239
F0.95
sS'form.val_interval.data'
p240
F1.0
sS'form.aug_rot.data'
p241
I0
sS'form.train_epochs.data'
p242
I15
sS'form.lr_poly_power.data'
p243
F3.0
ssg106
F1.0
sS'_id'
p244
S'20180528-191023-5ad4'
p245
sS'pickver_job_dataset'
p246
I1
sg146
(lp247
((idigits.status
Status
p248
g150
bF1527534623.306242
tp249
a((idigits.status
Status
p250
g153
bF1527534624.582534
tp251
a((idigits.status
Status
p252
g156
bF1527535148.095321
tp253
asS'pickver_job_model_image_classification'
p254
I1
sb.